; Function Attrs: nounwind uwtable
define hidden ptr @commonGetClassList(ptr noundef %0, ptr nocapture noundef readonly %1, ptr noundef %2, ptr nocapture noundef readonly %3) local_unnamed_addr #0 {
  %5 = alloca i32, align 4
  %6 = alloca ptr, align 8
  %7 = getelementptr inbounds i8, ptr %1, i64 8
  %8 = load ptr, ptr %7, align 8
  store i32 0, ptr %5, align 4
  store ptr null, ptr %6, align 8
  %9 = call i32 %3(ptr noundef %8, ptr noundef %2, ptr noundef nonnull %5, ptr noundef nonnull %6) #10
  %10 = icmp eq i32 %9, 112
  br i1 %10, label %22, label %11

11:                                               ; preds = %4
  %.not = icmp eq i32 %9, 0
  %12 = zext i1 %.not to i8
  call void @JPLISAssertCondition(i8 noundef zeroext %12, ptr noundef nonnull @.str.55, ptr noundef nonnull @.str.1, i32 noundef 1403) #10
  br i1 %.not, label %14, label %13

13:                                               ; preds = %11
  call void @createAndThrowThrowableFromJVMTIErrorCode(ptr noundef %0, i32 noundef %9) #10
  br label %21

14:                                               ; preds = %11
  %15 = load ptr, ptr %6, align 8
  %16 = load i32, ptr %5, align 4
  %17 = call ptr @getObjectArrayFromClasses(ptr noundef %0, ptr noundef %15, i32 noundef %16)
  %18 = call zeroext i8 @checkForThrowable(ptr noundef %0) #10
  %.not19 = icmp eq i8 %18, 0
  %19 = zext i1 %.not19 to i8
  call void @JPLISAssertCondition(i8 noundef zeroext %19, ptr noundef nonnull @.str.55, ptr noundef nonnull @.str.1, i32 noundef 1412) #10
  %20 = load ptr, ptr %6, align 8
  call void @deallocate(ptr noundef %8, ptr noundef %20) #10
  br label %21

21:                                               ; preds = %14, %13
  %.0 = phi ptr [ null, %13 ], [ %17, %14 ]
  call void @mapThrownThrowableIfNecessary(ptr noundef %0, ptr noundef nonnull @mapAllCheckedToInternalErrorMapper) #10
  br label %22

22:                                               ; preds = %4, %21
  %.017 = phi ptr [ %.0, %21 ], [ null, %4 ]
  ret ptr %.017
}